; Function Attrs: nounwind uwtable
define hidden void @spl_array_iterator_key(ptr nocapture noundef readonly %0, ptr noundef %1) local_unnamed_addr #0 {
  %3 = load ptr, ptr %0, align 8
  %4 = getelementptr inbounds i8, ptr %3, i64 -88
  %5 = getelementptr inbounds i8, ptr %3, i64 -68
  %6 = load i32, ptr %5, align 4
  %7 = and i32 %6, 16777216
  %.not30.i.i = icmp eq i32 %7, 0
  br i1 %.not30.i.i, label %.lr.ph.i.i, label %tailrecurse._crit_edge.i.i

tailrecurse._crit_edge.i.i:                       ; preds = %tailrecurse.i.i, %2
  %.tr.lcssa.i.i = phi ptr [ %4, %2 ], [ %15, %tailrecurse.i.i ]
  %8 = getelementptr inbounds i8, ptr %.tr.lcssa.i.i, i64 120
  %9 = load ptr, ptr %8, align 8
  %.not28.i.i = icmp eq ptr %9, null
  br i1 %.not28.i.i, label %10, label %spl_array_get_hash_table.exit

10:                                               ; preds = %tailrecurse._crit_edge.i.i
  %11 = getelementptr inbounds i8, ptr %.tr.lcssa.i.i, i64 88
  tail call void @rebuild_object_properties(ptr noundef nonnull %11) #11
  br label %spl_array_get_hash_table.exit

.lr.ph.i.i:                                       ; preds = %2, %tailrecurse.i.i
  %12 = phi i32 [ %17, %tailrecurse.i.i ], [ %6, %2 ]
  %.tr31.i.i = phi ptr [ %15, %tailrecurse.i.i ], [ %4, %2 ]
  %13 = and i32 %12, 33554432
  %.not25.i.i = icmp eq i32 %13, 0
  br i1 %.not25.i.i, label %19, label %tailrecurse.i.i

tailrecurse.i.i:                                  ; preds = %.lr.ph.i.i
  %14 = load ptr, ptr %.tr31.i.i, align 8
  %15 = getelementptr inbounds i8, ptr %14, i64 -88
  %16 = getelementptr inbounds i8, ptr %14, i64 -68
  %17 = load i32, ptr %16, align 4
  %18 = and i32 %17, 16777216
  %.not.i.i = icmp eq i32 %18, 0
  br i1 %.not.i.i, label %.lr.ph.i.i, label %tailrecurse._crit_edge.i.i

19:                                               ; preds = %.lr.ph.i.i
  %20 = getelementptr inbounds i8, ptr %.tr31.i.i, i64 8
  %21 = load i8, ptr %20, align 8
  %22 = icmp eq i8 %21, 7
  br i1 %22, label %spl_array_get_hash_table.exit, label %23

23:                                               ; preds = %19
  %24 = load ptr, ptr %.tr31.i.i, align 8
  %25 = getelementptr inbounds i8, ptr %24, i64 32
  %26 = load ptr, ptr %25, align 8
  %.not26.i.i = icmp eq ptr %26, null
  br i1 %.not26.i.i, label %27, label %28

27:                                               ; preds = %23
  tail call void @rebuild_object_properties(ptr noundef nonnull %24) #11
  br label %spl_array_get_hash_table.exit

28:                                               ; preds = %23
  %29 = load i32, ptr %26, align 4
  %30 = icmp ugt i32 %29, 1
  br i1 %30, label %31, label %spl_array_get_hash_table.exit

31:                                               ; preds = %28
  %32 = getelementptr inbounds i8, ptr %26, i64 4
  %33 = load i32, ptr %32, align 4
  %34 = and i32 %33, 64
  %.not27.i.i = icmp eq i32 %34, 0
  br i1 %.not27.i.i, label %35, label %37

35:                                               ; preds = %31
  %36 = add i32 %29, -1
  store i32 %36, ptr %26, align 4
  %.pre.i.i = load ptr, ptr %25, align 8
  br label %37

37:                                               ; preds = %35, %31
  %38 = phi ptr [ %.pre.i.i, %35 ], [ %26, %31 ]
  %39 = tail call ptr @zend_array_dup(ptr noundef %38) #11
  store ptr %39, ptr %25, align 8
  br label %spl_array_get_hash_table.exit

spl_array_get_hash_table.exit:                    ; preds = %tailrecurse._crit_edge.i.i, %10, %19, %27, %28, %37
  %.0.i.i = phi ptr [ %8, %10 ], [ %8, %tailrecurse._crit_edge.i.i ], [ %.tr31.i.i, %19 ], [ %25, %28 ], [ %25, %37 ], [ %25, %27 ]
  %40 = load ptr, ptr %.0.i.i, align 8
  %41 = getelementptr inbounds i8, ptr %3, i64 -72
  %42 = load i32, ptr %41, align 8
  %43 = icmp eq i32 %42, -1
  br i1 %43, label %44, label %51

44:                                               ; preds = %spl_array_get_hash_table.exit
  %45 = tail call i32 @zend_hash_get_current_pos(ptr noundef %40) #11
  %46 = tail call i32 @zend_hash_iterator_add(ptr noundef %40, i32 noundef %45) #11
  store i32 %46, ptr %41, align 8
  %47 = load ptr, ptr getelementptr inbounds (%struct._zend_executor_globals, ptr @executor_globals, i64 0, i32 60), align 8
  %48 = zext i32 %46 to i64
  %49 = getelementptr inbounds %struct._HashTableIterator, ptr %47, i64 %48, i32 1
  tail call void @zend_hash_internal_pointer_reset_ex(ptr noundef %40, ptr noundef nonnull %49) #11
  %50 = tail call fastcc i32 @spl_array_skip_protected(ptr noundef nonnull %4, ptr noundef %40), !range !4
  %.pre = load i32, ptr %41, align 8
  br label %51

51:                                               ; preds = %44, %spl_array_get_hash_table.exit
  %52 = phi i32 [ %.pre, %44 ], [ %42, %spl_array_get_hash_table.exit ]
  %53 = load ptr, ptr getelementptr inbounds (%struct._zend_executor_globals, ptr @executor_globals, i64 0, i32 60), align 8
  %54 = zext i32 %52 to i64
  %55 = getelementptr inbounds %struct._HashTableIterator, ptr %53, i64 %54, i32 1
  tail call void @zend_hash_get_current_key_zval_ex(ptr noundef %40, ptr noundef %1, ptr noundef nonnull %55) #11
  ret void
}